target datalayout = "e-m:e-p270:32:32-p271:32:32-p272:64:64-i64:64-i128:128-f80:128-n8:16:32:64-S128"
target triple = "x86_64-pc-linux-gnu"

%"class.icu_77::MaybeStackArray" = type <{ ptr, i32, i8, [40 x i8], [3 x i8] }>
%"class.icu_77::CharString" = type { %"class.icu_77::MaybeStackArray", i32, [4 x i8] }
%"class.std::basic_string_view" = type { i64, ptr }

@.str.5 = private unnamed_addr constant [7 x i8] c"layout\00", align 1
@_ZN6icu_7715MaybeStackArrayIcLi40EED1Ev = weak_odr unnamed_addr alias void (ptr), ptr @_ZN6icu_7715MaybeStackArrayIcLi40EED2Ev

; Function Attrs: mustprogress nounwind uwtable
define weak_odr noundef ptr @_ZNK6icu_7715MaybeStackArrayIcLi40EE8getAliasEv(ptr noundef nonnull align 8 dereferenceable(53) %0) #0 comdat align 2 {
  %2 = alloca ptr, align 8
  store ptr %0, ptr %2, align 8, !tbaa !3
  %3 = load ptr, ptr %2, align 8
  %4 = getelementptr inbounds nuw %"class.icu_77::MaybeStackArray", ptr %3, i32 0, i32 0
  %5 = load ptr, ptr %4, align 8, !tbaa !8
  ret ptr %5
}

; Function Attrs: noinline noreturn nounwind uwtable
define linkonce_odr hidden void @__clang_call_terminate(ptr noundef %0) #4 comdat {
  %2 = call ptr @__cxa_begin_catch(ptr %0) #11
  call void @_ZSt9terminatev() #13
  unreachable
}

; Function Attrs: mustprogress nounwind uwtable
define linkonce_odr noundef i64 @_ZNSt11char_traitsIcE6lengthEPKc(ptr noundef %0) #0 comdat align 2 {
  %2 = alloca ptr, align 8
  store ptr %0, ptr %2, align 8, !tbaa !17
  %3 = load ptr, ptr %2, align 8, !tbaa !17
  %4 = call i64 @strlen(ptr noundef %3) #11
  ret i64 %4
}

; Function Attrs: mustprogress nounwind uwtable
define linkonce_odr void @_ZN6icu_7710CharStringD2Ev(ptr noundef nonnull align 8 dereferenceable(60) %0) unnamed_addr #0 comdat align 2 {
  %2 = alloca ptr, align 8
  store ptr %0, ptr %2, align 8, !tbaa !37
  %3 = load ptr, ptr %2, align 8
  %4 = getelementptr inbounds nuw %"class.icu_77::CharString", ptr %3, i32 0, i32 0
  call void @_ZN6icu_7715MaybeStackArrayIcLi40EED1Ev(ptr noundef nonnull align 8 dereferenceable(53) %4) #11
  ret void
}

; Function Attrs: mustprogress nounwind uwtable
define linkonce_odr noundef ptr @_ZN6icu_7710CharString4dataEv(ptr noundef nonnull align 8 dereferenceable(60) %0) #0 comdat align 2 {
  %2 = alloca ptr, align 8
  store ptr %0, ptr %2, align 8, !tbaa !37
  %3 = load ptr, ptr %2, align 8
  %4 = getelementptr inbounds nuw %"class.icu_77::CharString", ptr %3, i32 0, i32 0
  %5 = call noundef ptr @_ZNK6icu_7715MaybeStackArrayIcLi40EE8getAliasEv(ptr noundef nonnull align 8 dereferenceable(53) %4)
  ret ptr %5
}

; Function Attrs: mustprogress nounwind uwtable
define linkonce_odr void @_ZNSt17basic_string_viewIcSt11char_traitsIcEEC2EPKc(ptr noundef nonnull align 8 dereferenceable(16) %0, ptr noundef nonnull %1) unnamed_addr #0 comdat align 2 personality ptr @__gxx_personality_v0 {
  %3 = alloca ptr, align 8
  %4 = alloca ptr, align 8
  store ptr %0, ptr %3, align 8, !tbaa !51
  store ptr %1, ptr %4, align 8, !tbaa !17
  %5 = load ptr, ptr %3, align 8
  %6 = getelementptr inbounds nuw %"class.std::basic_string_view", ptr %5, i32 0, i32 0
  %7 = load ptr, ptr %4, align 8, !tbaa !17
  %8 = invoke noundef i64 @_ZNSt11char_traitsIcE6lengthEPKc(ptr noundef %7)
          to label %9 unwind label %12

9:                                                ; preds = %2
  store i64 %8, ptr %6, align 8, !tbaa !53
  %10 = getelementptr inbounds nuw %"class.std::basic_string_view", ptr %5, i32 0, i32 1
  %11 = load ptr, ptr %4, align 8, !tbaa !17
  store ptr %11, ptr %10, align 8, !tbaa !55
  ret void

12:                                               ; preds = %2
  %13 = landingpad { ptr, i32 }
          catch ptr null
  %14 = extractvalue { ptr, i32 } %13, 0
  call void @__clang_call_terminate(ptr %14) #13
  unreachable
}

; Function Attrs: inlinehint mustprogress nounwind uwtable
define internal noundef signext i8 @_ZL9U_FAILURE10UErrorCode(i32 noundef %0) #2 {
  %2 = alloca i32, align 4
  store i32 %0, ptr %2, align 4, !tbaa !15
  %3 = load i32, ptr %2, align 4, !tbaa !15
  %4 = icmp sgt i32 %3, 0
  %5 = zext i1 %4 to i8
  ret i8 %5
}

; Function Attrs: mustprogress uwtable
define internal noundef i32 @_ZN12_GLOBAL__N_126_uloc_getOrientationHelperEPKcS1_R10UErrorCode(ptr noundef %0, ptr noundef %1, ptr noundef nonnull align 4 dereferenceable(4) %2) #1 personality ptr @__gxx_personality_v0 {
  %4 = alloca i32, align 4
  %5 = alloca ptr, align 8
  %6 = alloca ptr, align 8
  %7 = alloca ptr, align 8
  %8 = alloca i32, align 4
  %9 = alloca i32, align 4
  %10 = alloca %"class.icu_77::CharString", align 8
  %11 = alloca %"class.std::basic_string_view", align 8
  %12 = alloca i32, align 4
  %13 = alloca ptr, align 8
  %14 = alloca ptr, align 8
  %15 = alloca i32, align 4
  store ptr %0, ptr %5, align 8, !tbaa !17
  store ptr %1, ptr %6, align 8, !tbaa !17
  store ptr %2, ptr %7, align 8, !tbaa !22
  call void @llvm.lifetime.start.p0(i64 4, ptr %8) #11
  store i32 4, ptr %8, align 4, !tbaa !42
  %16 = load ptr, ptr %7, align 8, !tbaa !22
  %17 = load i32, ptr %16, align 4, !tbaa !15
  %18 = call noundef signext i8 @_ZL9U_FAILURE10UErrorCode(i32 noundef %17)
  %19 = icmp ne i8 %18, 0
  br i1 %19, label %20, label %22

20:                                               ; preds = %3
  %21 = load i32, ptr %8, align 4, !tbaa !42
  store i32 %21, ptr %4, align 4
  store i32 1, ptr %9, align 4
  br label %75

22:                                               ; preds = %3
  %23 = load ptr, ptr %5, align 8, !tbaa !17
  %24 = icmp eq ptr %23, null
  br i1 %24, label %25, label %27

25:                                               ; preds = %22
  %26 = call ptr @uloc_getDefault_77()
  store ptr %26, ptr %5, align 8, !tbaa !17
  br label %27

27:                                               ; preds = %25, %22
  call void @llvm.lifetime.start.p0(i64 64, ptr %10) #11
  %28 = load ptr, ptr %5, align 8, !tbaa !17
  call void @_ZNSt17basic_string_viewIcSt11char_traitsIcEEC2EPKc(ptr noundef nonnull align 8 dereferenceable(16) %11, ptr noundef %28) #11
  %29 = load ptr, ptr %7, align 8, !tbaa !22
  %30 = getelementptr inbounds nuw { i64, ptr }, ptr %11, i32 0, i32 0
  %31 = load i64, ptr %30, align 8
  %32 = getelementptr inbounds nuw { i64, ptr }, ptr %11, i32 0, i32 1
  %33 = load ptr, ptr %32, align 8
  call void @_Z23ulocimp_canonicalize_77St17basic_string_viewIcSt11char_traitsIcEER10UErrorCode(ptr dead_on_unwind writable sret(%"class.icu_77::CharString") align 8 %10, i64 %31, ptr %33, ptr noundef nonnull align 4 dereferenceable(4) %29)
  %34 = load ptr, ptr %7, align 8, !tbaa !22
  %35 = load i32, ptr %34, align 4, !tbaa !15
  %36 = call noundef signext i8 @_ZL9U_FAILURE10UErrorCode(i32 noundef %35)
  %37 = icmp ne i8 %36, 0
  br i1 %37, label %38, label %40

38:                                               ; preds = %27
  %39 = load i32, ptr %8, align 4, !tbaa !42
  store i32 %39, ptr %4, align 4
  store i32 1, ptr %9, align 4
  br label %74

40:                                               ; preds = %27
  call void @llvm.lifetime.start.p0(i64 4, ptr %12) #11
  store i32 0, ptr %12, align 4, !tbaa !14
  call void @llvm.lifetime.start.p0(i64 8, ptr %13) #11
  %41 = call noundef ptr @_ZN6icu_7710CharString4dataEv(ptr noundef nonnull align 8 dereferenceable(60) %10)
  %42 = load ptr, ptr %6, align 8, !tbaa !17
  %43 = load ptr, ptr %7, align 8, !tbaa !22
  %44 = invoke ptr @uloc_getTableStringWithFallback_77(ptr noundef null, ptr noundef %41, ptr noundef @.str.5, ptr noundef null, ptr noundef %42, ptr noundef %12, ptr noundef %43)
          to label %45 unwind label %52

45:                                               ; preds = %40
  store ptr %44, ptr %13, align 8, !tbaa !23
  %46 = load ptr, ptr %7, align 8, !tbaa !22
  %47 = load i32, ptr %46, align 4, !tbaa !15
  %48 = call noundef signext i8 @_ZL9U_FAILURE10UErrorCode(i32 noundef %47)
  %49 = icmp ne i8 %48, 0
  br i1 %49, label %50, label %56

50:                                               ; preds = %45
  %51 = load i32, ptr %8, align 4, !tbaa !42
  store i32 %51, ptr %4, align 4
  store i32 1, ptr %9, align 4
  br label %73

52:                                               ; preds = %40
  %53 = landingpad { ptr, i32 }
          cleanup
  %54 = extractvalue { ptr, i32 } %53, 0
  store ptr %54, ptr %14, align 8
  %55 = extractvalue { ptr, i32 } %53, 1
  store i32 %55, ptr %15, align 4
  call void @llvm.lifetime.end.p0(i64 8, ptr %13) #11
  call void @llvm.lifetime.end.p0(i64 4, ptr %12) #11
  call void @_ZN6icu_7710CharStringD2Ev(ptr noundef nonnull align 8 dereferenceable(60) %10) #11
  call void @llvm.lifetime.end.p0(i64 64, ptr %10) #11
  call void @llvm.lifetime.end.p0(i64 4, ptr %8) #11
  br label %77

56:                                               ; preds = %45
  %57 = load i32, ptr %12, align 4, !tbaa !14
  %58 = icmp ne i32 %57, 0
  br i1 %58, label %59, label %71

59:                                               ; preds = %56
  %60 = load ptr, ptr %13, align 8, !tbaa !23
  %61 = getelementptr inbounds i16, ptr %60, i64 0
  %62 = load i16, ptr %61, align 2, !tbaa !44
  %63 = zext i16 %62 to i32
  switch i32 %63, label %68 [
    i32 98, label %64
    i32 108, label %65
    i32 114, label %66
    i32 116, label %67
  ]

64:                                               ; preds = %59
  store i32 3, ptr %8, align 4, !tbaa !42
  br label %70

65:                                               ; preds = %59
  store i32 0, ptr %8, align 4, !tbaa !42
  br label %70

66:                                               ; preds = %59
  store i32 1, ptr %8, align 4, !tbaa !42
  br label %70

67:                                               ; preds = %59
  store i32 2, ptr %8, align 4, !tbaa !42
  br label %70

68:                                               ; preds = %59
  %69 = load ptr, ptr %7, align 8, !tbaa !22
  store i32 5, ptr %69, align 4, !tbaa !15
  br label %70

70:                                               ; preds = %68, %67, %66, %65, %64
  br label %71

71:                                               ; preds = %70, %56
  %72 = load i32, ptr %8, align 4, !tbaa !42
  store i32 %72, ptr %4, align 4
  store i32 1, ptr %9, align 4
  br label %73

73:                                               ; preds = %71, %50
  call void @llvm.lifetime.end.p0(i64 8, ptr %13) #11
  call void @llvm.lifetime.end.p0(i64 4, ptr %12) #11
  br label %74

74:                                               ; preds = %73, %38
  call void @_ZN6icu_7710CharStringD2Ev(ptr noundef nonnull align 8 dereferenceable(60) %10) #11
  call void @llvm.lifetime.end.p0(i64 64, ptr %10) #11
  br label %75

75:                                               ; preds = %74, %20
  call void @llvm.lifetime.end.p0(i64 4, ptr %8) #11
  %76 = load i32, ptr %4, align 4
  ret i32 %76

77:                                               ; preds = %52
  %78 = load ptr, ptr %14, align 8
  %79 = load i32, ptr %15, align 4
  %80 = insertvalue { ptr, i32 } poison, ptr %78, 0
  %81 = insertvalue { ptr, i32 } %80, i32 %79, 1
  resume { ptr, i32 } %81
}