; Function Attrs: mustprogress uwtable
define internal fastcc noundef range(i32 0, 5) i32 @_ZN12_GLOBAL__N_126_uloc_getOrientationHelperEPKcS1_R10UErrorCode(ptr noundef %0, ptr noundef %1, ptr noundef nonnull align 4 dereferenceable(4) %2) unnamed_addr #1 personality ptr @__gxx_personality_v0 {
  %4 = alloca %"class.icu_77::CharString", align 8
  %5 = alloca i32, align 4
  %6 = load i32, ptr %2, align 4, !tbaa !13
  %7 = icmp slt i32 %6, 1
  br i1 %7, label %8, label %35

8:                                                ; preds = %3
  %9 = icmp eq ptr %0, null
  br i1 %9, label %10, label %12

10:                                               ; preds = %8
  %11 = tail call ptr @uloc_getDefault_77()
  br label %12

12:                                               ; preds = %10, %8
  %.016 = phi ptr [ %11, %10 ], [ %0, %8 ]
  call void @llvm.lifetime.start.p0(i64 64, ptr nonnull %4) #14
  %13 = tail call noundef i64 @strlen(ptr noundef nonnull dereferenceable(1) %.016) #14
  call void @_Z23ulocimp_canonicalize_77St17basic_string_viewIcSt11char_traitsIcEER10UErrorCode(ptr dead_on_unwind nonnull writable sret(%"class.icu_77::CharString") align 8 %4, i64 %13, ptr nonnull %.016, ptr noundef nonnull align 4 dereferenceable(4) %2)
  %14 = load i32, ptr %2, align 4, !tbaa !13
  %15 = icmp slt i32 %14, 1
  br i1 %15, label %16, label %34

16:                                               ; preds = %12
  call void @llvm.lifetime.start.p0(i64 4, ptr nonnull %5) #14
  store i32 0, ptr %5, align 4, !tbaa !12
  %17 = load ptr, ptr %4, align 8, !tbaa !3
  %18 = invoke ptr @uloc_getTableStringWithFallback_77(ptr noundef null, ptr noundef %17, ptr noundef nonnull @.str.5, ptr noundef null, ptr noundef %1, ptr noundef nonnull %5, ptr noundef nonnull %2)
          to label %19 unwind label %23

19:                                               ; preds = %16
  %20 = load i32, ptr %2, align 4, !tbaa !13
  %21 = icmp sgt i32 %20, 0
  %22 = load i32, ptr %5, align 4
  %.not21 = icmp eq i32 %22, 0
  %or.cond = select i1 %21, i1 true, i1 %.not21
  br i1 %or.cond, label %33, label %25

23:                                               ; preds = %16
  %24 = landingpad { ptr, i32 }
          cleanup
  call void @llvm.lifetime.end.p0(i64 4, ptr nonnull %5) #14
  call void @_ZN6icu_7715MaybeStackArrayIcLi40EED1Ev(ptr noundef nonnull align 8 dereferenceable(60) %4) #14
  call void @llvm.lifetime.end.p0(i64 64, ptr nonnull %4) #14
  resume { ptr, i32 } %24

25:                                               ; preds = %19
  %26 = load i16, ptr %18, align 2, !tbaa !21
  %27 = zext i16 %26 to i32
  %28 = add nsw i32 %27, -98
  %29 = call i32 @llvm.fshl.i32(i32 %28, i32 %28, i32 31)
  %30 = icmp ult i32 %29, 10
  br i1 %30, label %switch.hole_check, label %31

31:                                               ; preds = %switch.hole_check, %25
  store i32 5, ptr %2, align 4, !tbaa !13
  br label %33

switch.hole_check:                                ; preds = %25
  %switch.maskindex = trunc nuw i32 %29 to i16
  %switch.shifted = lshr i16 801, %switch.maskindex
  %switch.lobit = trunc i16 %switch.shifted to i1
  br i1 %switch.lobit, label %switch.lookup, label %31

switch.lookup:                                    ; preds = %switch.hole_check
  %32 = zext nneg i32 %29 to i64
  %switch.gep = getelementptr inbounds nuw [10 x i32], ptr @switch.table._ZN12_GLOBAL__N_126_uloc_getOrientationHelperEPKcS1_R10UErrorCode, i64 0, i64 %32
  %switch.load = load i32, ptr %switch.gep, align 4
  br label %33

33:                                               ; preds = %switch.lookup, %31, %19
  %.2 = phi i32 [ 4, %19 ], [ 4, %31 ], [ %switch.load, %switch.lookup ]
  call void @llvm.lifetime.end.p0(i64 4, ptr nonnull %5) #14
  br label %34

34:                                               ; preds = %12, %33
  %.1 = phi i32 [ %.2, %33 ], [ 4, %12 ]
  call void @_ZN6icu_7715MaybeStackArrayIcLi40EED1Ev(ptr noundef nonnull align 8 dereferenceable(60) %4) #14
  call void @llvm.lifetime.end.p0(i64 64, ptr nonnull %4) #14
  br label %35

35:                                               ; preds = %3, %34
  %.0 = phi i32 [ %.1, %34 ], [ 4, %3 ]
  ret i32 %.0
}